target datalayout = "e-m:e-p270:32:32-p271:32:32-p272:64:64-i64:64-i128:128-f80:128-n8:16:32:64-S128"
target triple = "x86_64-pc-linux-gnu"

%struct._php_stream = type { ptr, ptr, %struct._php_stream_filter_chain, %struct._php_stream_filter_chain, ptr, ptr, %struct._zval_struct, i16, [16 x i8], i32, ptr, ptr, ptr, ptr, i64, ptr, i64, i64, i64, i64, ptr }
%struct._php_stream_filter_chain = type { ptr, ptr, ptr }
%struct._zval_struct = type { %union._zend_value, %union.anon, %union.anon.2 }
%union._zend_value = type { i64 }
%union.anon = type { i32 }
%union.anon.2 = type { i32 }
%struct.glob_s_t = type { %struct.glob_t, i64, i32, ptr, i64, ptr, i64, ptr, i64, i8 }
%struct.glob_t = type { i64, ptr, i64, i32, ptr, ptr, ptr, ptr, ptr }

; Function Attrs: nounwind uwtable
define internal i32 @php_glob_stream_get_result_count(ptr noundef %0) #0 {
  %2 = alloca ptr, align 8
  store ptr %0, ptr %2, align 8
  %3 = load ptr, ptr %2, align 8
  %4 = getelementptr inbounds %struct.glob_s_t, ptr %3, i32 0, i32 9
  %5 = load i8, ptr %4, align 8
  %6 = trunc i8 %5 to i1
  br i1 %6, label %7, label %13

7:                                                ; preds = %1
  %8 = load ptr, ptr %2, align 8
  %9 = getelementptr inbounds %struct.glob_s_t, ptr %8, i32 0, i32 8
  %10 = load i64, ptr %9, align 8
  %11 = trunc i64 %10 to i32
  %12 = sext i32 %11 to i64
  br label %18

13:                                               ; preds = %1
  %14 = load ptr, ptr %2, align 8
  %15 = getelementptr inbounds %struct.glob_s_t, ptr %14, i32 0, i32 0
  %16 = getelementptr inbounds %struct.glob_t, ptr %15, i32 0, i32 0
  %17 = load i64, ptr %16, align 8
  br label %18

18:                                               ; preds = %13, %7
  %19 = phi i64 [ %12, %7 ], [ %17, %13 ]
  %20 = trunc i64 %19 to i32
  ret i32 %20
}

; Function Attrs: nounwind uwtable
define i32 @_php_glob_stream_get_count(ptr noundef %0, ptr noundef %1) #0 {
  %3 = alloca i32, align 4
  %4 = alloca ptr, align 8
  %5 = alloca ptr, align 8
  %6 = alloca ptr, align 8
  store ptr %0, ptr %4, align 8
  store ptr %1, ptr %5, align 8
  %7 = load ptr, ptr %4, align 8
  %8 = getelementptr inbounds %struct._php_stream, ptr %7, i32 0, i32 1
  %9 = load ptr, ptr %8, align 8
  store ptr %9, ptr %6, align 8
  %10 = load ptr, ptr %6, align 8
  %11 = icmp ne ptr %10, null
  br i1 %11, label %12, label %23

12:                                               ; preds = %2
  %13 = load ptr, ptr %5, align 8
  %14 = icmp ne ptr %13, null
  br i1 %14, label %15, label %20

15:                                               ; preds = %12
  %16 = load ptr, ptr %6, align 8
  %17 = getelementptr inbounds %struct.glob_s_t, ptr %16, i32 0, i32 2
  %18 = load i32, ptr %17, align 8
  %19 = load ptr, ptr %5, align 8
  store i32 %18, ptr %19, align 4
  br label %20

20:                                               ; preds = %15, %12
  %21 = load ptr, ptr %6, align 8
  %22 = call i32 @php_glob_stream_get_result_count(ptr noundef %21)
  store i32 %22, ptr %3, align 4
  br label %29

23:                                               ; preds = %2
  %24 = load ptr, ptr %5, align 8
  %25 = icmp ne ptr %24, null
  br i1 %25, label %26, label %28

26:                                               ; preds = %23
  %27 = load ptr, ptr %5, align 8
  store i32 0, ptr %27, align 4
  br label %28

28:                                               ; preds = %26, %23
  store i32 0, ptr %3, align 4
  br label %29

29:                                               ; preds = %28, %20
  %30 = load i32, ptr %3, align 4
  ret i32 %30
}