; Function Attrs: mustprogress nofree norecurse nosync nounwind willreturn memory(read, argmem: readwrite, inaccessiblemem: none) uwtable
define i32 @_php_glob_stream_get_count(ptr nocapture noundef readonly %0, ptr noundef writeonly %1) local_unnamed_addr #0 {
  %3 = getelementptr inbounds i8, ptr %0, i64 8
  %4 = load ptr, ptr %3, align 8
  %.not = icmp eq ptr %4, null
  %.not10 = icmp eq ptr %1, null
  br i1 %.not, label %21, label %5

5:                                                ; preds = %2
  br i1 %.not10, label %9, label %6

6:                                                ; preds = %5
  %7 = getelementptr inbounds i8, ptr %4, i64 80
  %8 = load i32, ptr %7, align 8
  store i32 %8, ptr %1, align 4
  br label %9

9:                                                ; preds = %6, %5
  %10 = getelementptr inbounds i8, ptr %4, i64 136
  %11 = load i8, ptr %10, align 8
  %12 = and i8 %11, 1
  %.not.i = icmp eq i8 %12, 0
  br i1 %.not.i, label %17, label %13

13:                                               ; preds = %9
  %14 = getelementptr inbounds i8, ptr %4, i64 128
  %15 = load i64, ptr %14, align 8
  %sext.i = shl i64 %15, 32
  %16 = ashr exact i64 %sext.i, 32
  br label %php_glob_stream_get_result_count.exit

17:                                               ; preds = %9
  %18 = load i64, ptr %4, align 8
  br label %php_glob_stream_get_result_count.exit

php_glob_stream_get_result_count.exit:            ; preds = %13, %17
  %19 = phi i64 [ %16, %13 ], [ %18, %17 ]
  %20 = trunc i64 %19 to i32
  br label %23

21:                                               ; preds = %2
  br i1 %.not10, label %23, label %22

22:                                               ; preds = %21
  store i32 0, ptr %1, align 4
  br label %23

23:                                               ; preds = %21, %22, %php_glob_stream_get_result_count.exit
  %.0 = phi i32 [ %20, %php_glob_stream_get_result_count.exit ], [ 0, %22 ], [ 0, %21 ]
  ret i32 %.0
}